target datalayout = "e-m:e-p270:32:32-p271:32:32-p272:64:64-i64:64-i128:128-f80:128-n8:16:32:64-S128"
target triple = "x86_64-pc-linux-gnu"

; Function Attrs: mustprogress uwtable
define hidden void @_ZN6Assimp11FBXExporter13WriteAllNodesEv(ptr noundef nonnull align 8 dereferenceable(264) %0) #3 align 2 {
  %2 = alloca ptr, align 8
  store ptr %0, ptr %2, align 8
  %3 = load ptr, ptr %2, align 8
  call void @_ZN6Assimp11FBXExporter20WriteHeaderExtensionEv(ptr noundef nonnull align 8 dereferenceable(264) %3)
  call void @_ZN6Assimp11FBXExporter19WriteGlobalSettingsEv(ptr noundef nonnull align 8 dereferenceable(264) %3)
  call void @_ZN6Assimp11FBXExporter14WriteDocumentsEv(ptr noundef nonnull align 8 dereferenceable(264) %3)
  call void @_ZN6Assimp11FBXExporter15WriteReferencesEv(ptr noundef nonnull align 8 dereferenceable(264) %3)
  call void @_ZN6Assimp11FBXExporter16WriteDefinitionsEv(ptr noundef nonnull align 8 dereferenceable(264) %3)
  call void @_ZN6Assimp11FBXExporter12WriteObjectsEv(ptr noundef nonnull align 8 dereferenceable(264) %3)
  call void @_ZN6Assimp11FBXExporter16WriteConnectionsEv(ptr noundef nonnull align 8 dereferenceable(264) %3)
  ret void
}