; Function Attrs: mustprogress uwtable
define hidden void @_ZN6Assimp11FBXExporter13WriteAllNodesEv(ptr noundef nonnull align 8 dereferenceable(264) %0) local_unnamed_addr #3 align 2 {
  tail call void @_ZN6Assimp11FBXExporter20WriteHeaderExtensionEv(ptr noundef nonnull align 8 dereferenceable(264) %0)
  tail call void @_ZN6Assimp11FBXExporter19WriteGlobalSettingsEv(ptr noundef nonnull align 8 dereferenceable(264) %0)
  tail call void @_ZN6Assimp11FBXExporter14WriteDocumentsEv(ptr noundef nonnull align 8 dereferenceable(264) %0)
  tail call void @_ZN6Assimp11FBXExporter15WriteReferencesEv(ptr noundef nonnull align 8 dereferenceable(264) %0)
  tail call void @_ZN6Assimp11FBXExporter16WriteDefinitionsEv(ptr noundef nonnull align 8 dereferenceable(264) %0)
  tail call void @_ZN6Assimp11FBXExporter12WriteObjectsEv(ptr noundef nonnull align 8 dereferenceable(264) %0)
  tail call void @_ZN6Assimp11FBXExporter16WriteConnectionsEv(ptr noundef nonnull align 8 dereferenceable(264) %0)
  ret void
}